; Function Attrs: mustprogress nofree norecurse nosync nounwind willreturn memory(read, inaccessiblemem: none) uwtable
define noundef i32 @_ZNK3gmx10OptionInfo13minValueCountEv(ptr noundef nonnull readonly align 8 captures(none) dereferenceable(16) %0) local_unnamed_addr #19 align 2 {
  %2 = getelementptr inbounds nuw i8, ptr %0, i64 8
  %3 = load ptr, ptr %2, align 8, !tbaa !66
  %4 = getelementptr inbounds nuw i8, ptr %3, i64 72
  %5 = load i64, ptr %4, align 8, !tbaa !15
  %6 = and i64 %5, 2048
  %.not = icmp eq i64 %6, 0
  br i1 %.not, label %7, label %10

7:                                                ; preds = %1
  %8 = getelementptr inbounds nuw i8, ptr %3, i64 88
  %9 = load i32, ptr %8, align 8, !tbaa !25
  br label %10

10:                                               ; preds = %1, %7
  %.0 = phi i32 [ %9, %7 ], [ 0, %1 ]
  ret i32 %.0
}